;
; File generated by cc65 v 2.16 - Git 035baa4
;
	.fopt		compiler,"cc65 v 2.16 - Git 035baa4"
	.setcpu		"6502"
	.smart		on
	.autoimport	on
	.case		on
	.debuginfo	off
	.importzp	sp, sreg, regsave, regbank
	.importzp	tmp1, tmp2, tmp3, tmp4, ptr1, ptr2, ptr3, ptr4
	.macpack	longbranch
	.forceimport	__STARTUP__
	.export		_NMIFlag
	.export		_FrameCounter
	.export		_index
	.export		_index2
	.export		_X
	.export		_Y
	.export		_xPaddle
	.export		_yPaddle
	.export		_dirPaddle
	.export		_speedPaddle
	.export		_xBall
	.export		_yBall
	.export		_dirBall
	.export		_speedBall
	.export		_inputStatus
	.export		_playing
	.export		_launched
	.export		_paused
	.export		_pauseTransition
	.export		_PAUSE_TEXT
	.export		_GAME_OVER
	.export		_WIN
	.export		_PADDLE
	.export		_BRICKS_X
	.export		_BRICKS_Y
	.export		_HBYTE_ADDRESSES
	.export		_LBYTE_ADDRESSES
	.export		_LEVEL
	.export		_LEVEL_NB
	.export		_Attrib_Table
	.export		_PALETTE
	.export		_SPRITE_TABLE
	.export		_updatePos
	.export		_inputListener
	.export		_spriteCollision
	.export		_frameRoutine
	.export		_readInput
	.export		_writeBrickToPPU
	.export		_writeBackgroundToPPU
	.export		_writePauseToPPU
	.export		_writeGameOverToPPU
	.export		_writeWinToPPU
	.export		_writeSpritesToPPU
	.export		_turnScreenOff
	.export		_turnScreenOn
	.export		_loadPalette
	.export		_resetScrollRegister
	.export		_waitVBlank
	.export		_main

.segment	"DATA"

_xPaddle:
	.byte	$00
_yPaddle:
	.byte	$D0
_dirPaddle:
	.byte	$03
_speedPaddle:
	.byte	$04
_xBall:
	.byte	$0C
_yBall:
	.byte	$C8
_dirBall:
	.byte	$03
_speedBall:
	.byte	$02
_playing:
	.byte	$01
_launched:
	.byte	$00
_paused:
	.byte	$00
_pauseTransition:
	.byte	$00
_LEVEL:
	.byte	$01
	.byte	$01
	.byte	$01
	.byte	$00
	.byte	$00
	.byte	$01
	.byte	$01
	.byte	$01
	.byte	$01
	.byte	$01
	.byte	$00
	.byte	$00
	.byte	$00
	.byte	$00
	.byte	$01
	.byte	$01
	.byte	$01
	.byte	$00
	.byte	$00
	.byte	$00
	.byte	$00
	.byte	$00
	.byte	$00
	.byte	$01
	.byte	$00
	.byte	$00
	.byte	$01
	.byte	$00
	.byte	$00
	.byte	$01
	.byte	$00
	.byte	$00
	.byte	$00
	.byte	$00
	.byte	$00
	.byte	$00
	.byte	$00
	.byte	$00
	.byte	$00
	.byte	$00
	.byte	$01
	.byte	$01
	.byte	$00
	.byte	$01
	.byte	$01
	.byte	$00
	.byte	$01
	.byte	$01
	.byte	$01
	.byte	$00
	.byte	$01
	.byte	$00
	.byte	$00
	.byte	$01
	.byte	$00
	.byte	$01
	.byte	$00
	.byte	$01
	.byte	$00
	.byte	$01
	.byte	$01
	.byte	$00
	.byte	$01
	.byte	$00
	.byte	$01
	.byte	$01
	.byte	$01
	.byte	$00
	.byte	$00
	.byte	$01
	.byte	$01
	.byte	$01
	.byte	$01
	.byte	$01
	.byte	$00
	.byte	$00
	.byte	$00
	.byte	$00
	.byte	$01
	.byte	$01
	.byte	$01
	.byte	$00
	.byte	$00
	.byte	$00
	.byte	$00
	.byte	$00
	.byte	$00
	.byte	$01
	.byte	$00
	.byte	$00
	.byte	$01
	.byte	$00
	.byte	$00
	.byte	$01
	.byte	$00
	.byte	$00
	.byte	$00
	.byte	$00
	.byte	$00
	.byte	$00
	.byte	$00
	.byte	$00
	.byte	$00
	.byte	$00
	.byte	$01
	.byte	$00
	.byte	$01
	.byte	$00
	.byte	$00
	.byte	$01
	.byte	$00
	.byte	$01
	.byte	$00
	.byte	$01
	.byte	$01
	.byte	$01
	.byte	$01
	.byte	$01
	.byte	$01
	.byte	$00
	.byte	$01
	.byte	$00
	.byte	$01
	.byte	$01
	.byte	$01
	.byte	$01
	.byte	$00
	.byte	$01
_LEVEL_NB:
	.byte	$24
	.byte	$22

.segment	"RODATA"

_PAUSE_TEXT:
	.byte	$50,$41,$55,$53,$45,$44,$00
_GAME_OVER:
	.byte	$47,$41,$4D,$45,$20,$4F,$56,$45,$52,$00
_WIN:
	.byte	$59,$4F,$55,$20,$57,$49,$4E,$00
_PADDLE:
	.byte	$01
	.byte	$02
	.byte	$02
	.byte	$01
_BRICKS_X:
	.byte	$00
	.byte	$20
	.byte	$40
	.byte	$60
	.byte	$80
	.byte	$A0
	.byte	$C0
	.byte	$E0
	.byte	$00
	.byte	$20
	.byte	$40
	.byte	$60
	.byte	$80
	.byte	$A0
	.byte	$C0
	.byte	$E0
	.byte	$00
	.byte	$20
	.byte	$40
	.byte	$60
	.byte	$80
	.byte	$A0
	.byte	$C0
	.byte	$E0
	.byte	$00
	.byte	$20
	.byte	$40
	.byte	$60
	.byte	$80
	.byte	$A0
	.byte	$C0
	.byte	$E0
	.byte	$00
	.byte	$20
	.byte	$40
	.byte	$60
	.byte	$80
	.byte	$A0
	.byte	$C0
	.byte	$E0
	.byte	$00
	.byte	$20
	.byte	$40
	.byte	$60
	.byte	$80
	.byte	$A0
	.byte	$C0
	.byte	$E0
	.byte	$00
	.byte	$20
	.byte	$40
	.byte	$60
	.byte	$80
	.byte	$A0
	.byte	$C0
	.byte	$E0
	.byte	$00
	.byte	$20
	.byte	$40
	.byte	$60
	.byte	$80
	.byte	$A0
	.byte	$C0
	.byte	$E0
_BRICKS_Y:
	.byte	$00
	.byte	$00
	.byte	$00
	.byte	$00
	.byte	$00
	.byte	$00
	.byte	$00
	.byte	$00
	.byte	$10
	.byte	$10
	.byte	$10
	.byte	$10
	.byte	$10
	.byte	$10
	.byte	$10
	.byte	$10
	.byte	$20
	.byte	$20
	.byte	$20
	.byte	$20
	.byte	$20
	.byte	$20
	.byte	$20
	.byte	$20
	.byte	$40
	.byte	$40
	.byte	$40
	.byte	$40
	.byte	$40
	.byte	$40
	.byte	$40
	.byte	$40
	.byte	$50
	.byte	$50
	.byte	$50
	.byte	$50
	.byte	$50
	.byte	$50
	.byte	$50
	.byte	$50
	.byte	$60
	.byte	$60
	.byte	$60
	.byte	$60
	.byte	$60
	.byte	$60
	.byte	$60
	.byte	$60
	.byte	$70
	.byte	$70
	.byte	$70
	.byte	$70
	.byte	$70
	.byte	$70
	.byte	$70
	.byte	$70
	.byte	$80
	.byte	$80
	.byte	$80
	.byte	$80
	.byte	$80
	.byte	$80
	.byte	$80
	.byte	$80
_HBYTE_ADDRESSES:
	.byte	$20
	.byte	$20
	.byte	$20
	.byte	$20
	.byte	$20
	.byte	$20
	.byte	$20
	.byte	$20
	.byte	$20
	.byte	$20
	.byte	$20
	.byte	$20
	.byte	$20
	.byte	$20
	.byte	$20
	.byte	$20
	.byte	$20
	.byte	$20
	.byte	$20
	.byte	$20
	.byte	$20
	.byte	$20
	.byte	$20
	.byte	$20
	.byte	$20
	.byte	$20
	.byte	$20
	.byte	$20
	.byte	$20
	.byte	$20
	.byte	$20
	.byte	$20
	.byte	$21
	.byte	$21
	.byte	$21
	.byte	$21
	.byte	$21
	.byte	$21
	.byte	$21
	.byte	$21
	.byte	$21
	.byte	$21
	.byte	$21
	.byte	$21
	.byte	$21
	.byte	$21
	.byte	$21
	.byte	$21
	.byte	$21
	.byte	$21
	.byte	$21
	.byte	$21
	.byte	$21
	.byte	$21
	.byte	$21
	.byte	$21
	.byte	$21
	.byte	$21
	.byte	$21
	.byte	$21
	.byte	$21
	.byte	$21
	.byte	$21
	.byte	$21
_LBYTE_ADDRESSES:
	.byte	$20
	.byte	$24
	.byte	$28
	.byte	$2C
	.byte	$30
	.byte	$34
	.byte	$38
	.byte	$3C
	.byte	$60
	.byte	$64
	.byte	$68
	.byte	$6C
	.byte	$70
	.byte	$74
	.byte	$78
	.byte	$7C
	.byte	$A0
	.byte	$A4
	.byte	$A8
	.byte	$AC
	.byte	$B0
	.byte	$B4
	.byte	$B8
	.byte	$BC
	.byte	$E0
	.byte	$E4
	.byte	$E8
	.byte	$EC
	.byte	$F0
	.byte	$F4
	.byte	$F8
	.byte	$FC
	.byte	$20
	.byte	$24
	.byte	$28
	.byte	$2C
	.byte	$30
	.byte	$34
	.byte	$38
	.byte	$3C
	.byte	$60
	.byte	$64
	.byte	$68
	.byte	$6C
	.byte	$70
	.byte	$74
	.byte	$78
	.byte	$7C
	.byte	$A0
	.byte	$A4
	.byte	$A8
	.byte	$AC
	.byte	$B0
	.byte	$B4
	.byte	$B8
	.byte	$BC
	.byte	$E0
	.byte	$E4
	.byte	$E8
	.byte	$EC
	.byte	$F0
	.byte	$F4
	.byte	$F8
	.byte	$FC
_Attrib_Table:
	.byte	$AA
	.byte	$AA
	.byte	$AA
	.byte	$AA
	.byte	$AA
	.byte	$AA
	.byte	$AA
	.byte	$AA
	.byte	$AA
	.byte	$AA
	.byte	$AA
	.byte	$AA
	.byte	$AA
	.byte	$AA
	.byte	$AA
	.byte	$AA
	.byte	$AA
	.byte	$AA
	.byte	$AA
	.byte	$AA
	.byte	$AA
	.byte	$AA
	.byte	$AA
	.byte	$AA
	.byte	$AA
	.byte	$AA
	.byte	$AA
	.byte	$AA
	.byte	$AA
	.byte	$AA
	.byte	$AA
	.byte	$AA
	.byte	$AA
	.byte	$AA
	.byte	$AA
	.byte	$AA
	.byte	$AA
	.byte	$AA
	.byte	$AA
	.byte	$AA
	.byte	$AA
	.byte	$AA
	.byte	$AA
	.byte	$AA
	.byte	$AA
	.byte	$AA
	.byte	$AA
	.byte	$AA
	.byte	$55
	.byte	$55
	.byte	$55
	.byte	$55
	.byte	$55
	.byte	$55
	.byte	$55
	.byte	$55
	.byte	$55
	.byte	$55
	.byte	$55
	.byte	$55
	.byte	$55
	.byte	$55
	.byte	$55
	.byte	$55
_PALETTE:
	.byte	$2D
	.byte	$20
	.byte	$10
	.byte	$00
	.byte	$30
	.byte	$30
	.byte	$33
	.byte	$14
	.byte	$30
	.byte	$01
	.byte	$21
	.byte	$3C
	.byte	$30
	.byte	$37
	.byte	$14
	.byte	$2B

.segment	"BSS"

.segment	"ZEROPAGE"
.segment	"OAM"
.segment	"ZEROPAGE"
_NMIFlag:
	.res	1,$00
.segment	"ZEROPAGE"
_FrameCounter:
	.res	1,$00
.segment	"ZEROPAGE"
_index:
	.res	1,$00
.segment	"ZEROPAGE"
_index2:
	.res	1,$00
.segment	"ZEROPAGE"
_X:
	.res	1,$00
.segment	"ZEROPAGE"
_Y:
	.res	1,$00
.segment	"ZEROPAGE"
_inputStatus:
	.res	1,$00
.segment	"OAM"
_SPRITE_TABLE:
	.res	256,$00

; ---------------------------------------------------------------
; void __near__ updatePos (void)
; ---------------------------------------------------------------

.segment	"CODE"

.proc	_updatePos: near

.segment	"CODE"

;
; if (dirPaddle == E && xPaddle < 223) {
;
	lda     _dirPaddle
	cmp     #$03
	bne     L04B6
	lda     _xPaddle
	cmp     #$DF
	bcs     L04B6
;
; xPaddle += speedPaddle;
;
	lda     _speedPaddle
	clc
	adc     _xPaddle
	sta     _xPaddle
;
; if (launched == FALSE) xBall += speedPaddle;
;
	lda     _launched
	bne     L04B9
	lda     _speedPaddle
	clc
;
; else if (dirPaddle == W && xPaddle > 0) {
;
	jmp     L04BE
L04B6:	lda     _dirPaddle
	cmp     #$07
	bne     L04B9
	lda     _xPaddle
	beq     L04B9
;
; xPaddle -= speedPaddle;
;
	lda     _speedPaddle
	eor     #$FF
	sec
	adc     _xPaddle
	sta     _xPaddle
;
; if (launched == FALSE) xBall -= speedPaddle;
;
	lda     _launched
	bne     L04B9
	lda     _speedPaddle
	eor     #$FF
	sec
L04BE:	adc     _xBall
	sta     _xBall
;
; if (launched == TRUE) {
;
L04B9:	lda     _launched
	cmp     #$01
	bne     L0251
;
; switch (dirBall) {
;
	lda     _dirBall
;
; }
;
	cmp     #$02
	beq     L04BA
	cmp     #$04
	beq     L04BB
	cmp     #$06
	beq     L04BC
	cmp     #$08
	beq     L04BD
	rts
;
; xBall += speedBall;
;
L04BA:	lda     _speedBall
	clc
;
; break;
;
	jmp     L04C4
;
; xBall += speedBall;
;
L04BB:	lda     _speedBall
	clc
	adc     _xBall
	sta     _xBall
;
; yBall += speedBall;
;
	lda     _speedBall
	clc
;
; break;
;
	jmp     L04BF
;
; xBall -= speedBall;
;
L04BC:	lda     _speedBall
	eor     #$FF
	sec
	adc     _xBall
	sta     _xBall
;
; yBall += speedBall;
;
	lda     _speedBall
	clc
;
; break;
;
	jmp     L04BF
;
; xBall -= speedBall;
;
L04BD:	lda     _speedBall
	eor     #$FF
	sec
L04C4:	adc     _xBall
	sta     _xBall
;
; yBall -= speedBall;
;
	lda     _speedBall
	eor     #$FF
	sec
L04BF:	adc     _yBall
	sta     _yBall
;
; }
;
L0251:	rts

.endproc

; ---------------------------------------------------------------
; void __near__ inputListener (void)
; ---------------------------------------------------------------

.segment	"CODE"

.proc	_inputListener: near

.segment	"CODE"

;
; readInput();
;
	jsr     _readInput
;
; if ((inputStatus & JP1_START) != 0
;
	lda     _inputStatus
	and     #$10
;
; && pauseTransition == FALSE)
;
	beq     L04CA
	lda     _pauseTransition
	bne     L04CA
;
; paused = (paused == TRUE)?FALSE:TRUE;
;
	lda     _paused
	cmp     #$01
	bne     L04C8
	lda     #$00
	jmp     L04C9
L04C8:	lda     #$01
L04C9:	sta     _paused
;
; pauseTransition = TRUE;
;
	lda     #$01
	sta     _pauseTransition
;
; FrameCounter = 0;
;
	lda     #$00
	sta     _FrameCounter
;
; writePauseToPPU();
;
	jsr     _writePauseToPPU
;
; if (paused == FALSE)
;
L04CA:	lda     _paused
	bne     L022F
;
; if ((inputStatus & JP1_LEFT) != 0)
;
	lda     _inputStatus
	and     #$02
	beq     L04CB
;
; dirPaddle = W;
;
	lda     #$07
	sta     _dirPaddle
;
; if (launched == FALSE) dirBall = NW;
;
	lda     _launched
	bne     L04CE
	lda     #$08
	sta     _dirBall
;
; else if ((inputStatus & JP1_RIGHT) != 0) //255-size of paddle
;
	jmp     L04CE
L04CB:	lda     _inputStatus
	and     #$01
	beq     L04CD
;
; dirPaddle = E;
;
	lda     #$03
	sta     _dirPaddle
;
; if (launched == FALSE) dirBall = NE;
;
	lda     _launched
	bne     L04CE
	lda     #$02
	sta     _dirBall
;
; else dirPaddle = NESW;
;
	jmp     L04CE
L04CD:	sta     _dirPaddle
;
; if ((inputStatus & JP1_A) != 0 && launched == FALSE)
;
L04CE:	lda     _inputStatus
	and     #$80
	beq     L04D0
	lda     _launched
	beq     L04D1
L04D0:	rts
;
; launched = TRUE;
;
L04D1:	lda     #$01
	sta     _launched
;
; }
;
L022F:	rts

.endproc

; ---------------------------------------------------------------
; void __near__ spriteCollision (void)
; ---------------------------------------------------------------

.segment	"CODE"

.proc	_spriteCollision: near

.segment	"CODE"

;
; if (xPaddle + 4 * 8 >= xBall && xPaddle <= xBall + 8
;
	ldx     #$00
	lda     _xPaddle
	clc
	adc     #$20
	bcc     L026D
	inx
L026D:	cmp     _xBall
	txa
	sbc     #$00
	bcc     L04DC
	lda     _xPaddle
	jsr     pusha0
	lda     _xBall
;
; && yPaddle <= yBall + 8 &&  yPaddle + 8 >= yBall)
;
	clc
	adc     #$08
	bcc     L026F
	ldx     #$01
L026F:	jsr     tosicmp
	beq     L04D5
	bcs     L04DC
L04D5:	lda     _yPaddle
	jsr     pusha0
	lda     _yBall
	clc
	adc     #$08
	bcc     L0270
	ldx     #$01
L0270:	jsr     tosicmp
	beq     L04D6
	bcs     L04DC
L04D6:	ldx     #$00
	lda     _yPaddle
	clc
	adc     #$08
	bcc     L0271
	inx
L0271:	cmp     _yBall
	txa
	sbc     #$00
	bcc     L04DC
;
; if (dirBall == SE) dirBall = NE;
;
	lda     _dirBall
	cmp     #$04
	bne     L04DB
	lda     #$02
;
; else dirBall = NW;
;
	jmp     L04D2
L04DB:	lda     #$08
L04D2:	sta     _dirBall
;
; switch (dirBall) {
;
L04DC:	lda     _dirBall
;
; }
;
	cmp     #$02
	beq     L04DD
	cmp     #$04
	beq     L04E3
	cmp     #$06
	beq     L04E5
	cmp     #$08
	beq     L04E7
	jmp     L04EC
;
; if (xBall >= BALL_MAX_X && yBall <= 8) dirBall = SW;
;
L04DD:	lda     _xBall
	cmp     #$F7
	bcc     L04E1
	lda     _yBall
	cmp     #$09
	bcs     L04E1
	lda     #$06
;
; else if (yBall <= 8) dirBall = SE;
;
	jmp     L04D3
L04E1:	lda     _yBall
	cmp     #$09
	bcs     L04E2
	lda     #$04
;
; else if (xBall >= BALL_MAX_X) dirBall = NW;
;
	jmp     L04D3
L04E2:	lda     _xBall
	cmp     #$F7
	lda     #$00
	bcc     L04ED
	lda     #$08
;
; break;
;
	jmp     L04D3
;
; if (yBall >= BALL_MAX_Y)
;
L04E3:	lda     _yBall
	cmp     #$E6
	bcc     L04E4
;
; playing = FALSE;
;
	lda     #$00
	sta     _playing
;
; writeGameOverToPPU();
;
	jsr     _writeGameOverToPPU
;
; else if (xBall >= BALL_MAX_X) dirBall = SW;
;
	jmp     L04EC
L04E4:	lda     _xBall
	cmp     #$F7
	lda     #$00
	bcc     L04ED
	lda     #$06
;
; break;
;
	jmp     L04D3
;
; if (yBall >= BALL_MAX_Y)
;
L04E5:	lda     _yBall
	cmp     #$E6
	bcc     L04E6
;
; playing = FALSE;
;
	lda     #$00
	sta     _playing
;
; writeGameOverToPPU();
;
	jsr     _writeGameOverToPPU
;
; else if (xBall <= 0) dirBall = SE;
;
	jmp     L04EC
L04E6:	lda     _xBall
	bne     L04EC
	lda     #$04
;
; break;
;
	jmp     L04D3
;
; if (xBall <= 0 && yBall <= 8) dirBall = SE;
;
L04E7:	lda     _xBall
	bne     L04EA
	lda     _yBall
	cmp     #$09
	bcs     L04EA
	lda     #$04
;
; else if (yBall <= 8) dirBall = SW;
;
	jmp     L04D3
L04EA:	lda     _yBall
	cmp     #$09
	bcs     L04EB
	lda     #$06
;
; else if (xBall <= 0) dirBall = NE;
;
	jmp     L04D3
L04EB:	lda     _xBall
	bne     L04EC
	lda     #$02
L04D3:	sta     _dirBall
;
; for (index = 0; index < sizeof(LEVEL[0]); ++index)
;
L04EC:	lda     #$00
L04ED:	sta     _index
L04EE:	lda     _index
	cmp     #$40
	bcc     L04F9
;
; }
;
	rts
;
; if (LEVEL[0][index] == FALSE)
;
L04F9:	ldy     _index
	lda     _LEVEL,y
	jne     L04F8
;
; if (xBall <= BRICKS_X[index] + 32 && xBall + 8 >= BRICKS_X[index]
;
	lda     _xBall
	jsr     pusha0
	ldy     _index
	lda     _BRICKS_X,y
	clc
	adc     #$20
	bcc     L02CC
	ldx     #$01
L02CC:	jsr     tosicmp
	beq     L04D7
	jcs     L04F8
L04D7:	ldx     #$00
	lda     _xBall
	clc
	adc     #$08
	bcc     L02CE
	inx
L02CE:	jsr     pushax
	ldy     _index
	lda     _BRICKS_X,y
;
; && yBall < BRICKS_Y[index] + 16 && yBall + 8 >= BRICKS_Y[index])
;
	jsr     tosicmp0
	jcc     L04F8
	lda     _yBall
	jsr     pusha0
	ldy     _index
	lda     _BRICKS_Y,y
	clc
	adc     #$10
	bcc     L02D3
	ldx     #$01
L02D3:	jsr     tosicmp
	jcs     L04F8
	ldx     #$00
	lda     _yBall
	clc
	adc     #$08
	bcc     L02D4
	inx
L02D4:	jsr     pushax
	ldy     _index
	lda     _BRICKS_Y,y
	jsr     tosicmp0
	jcc     L04F8
;
; LEVEL[0][index] = TRUE;
;
	ldy     _index
	lda     #$01
	sta     _LEVEL,y
;
; switch (dirBall)
;
	lda     _dirBall
;
; }
;
	cmp     #$02
	beq     L04EF
	cmp     #$04
	jeq     L04F2
	cmp     #$06
	jeq     L04F4
	cmp     #$08
	jeq     L04F6
	jmp     L02DF
;
; if (xBall < BRICKS_X[index] && xBall + 8 >= BRICKS_X[index] && yBall < BRICKS_Y[index] + 16 && xBall + 8 ) dirBall = NW;
;
L04EF:	lda     _xBall
	jsr     pusha0
	ldy     _index
	lda     _BRICKS_X,y
	jsr     tosicmp0
	bcs     L02E6
	ldx     #$00
	lda     _xBall
	clc
	adc     #$08
	bcc     L02E7
	inx
L02E7:	jsr     pushax
	ldy     _index
	lda     _BRICKS_X,y
	jsr     tosicmp0
	bcc     L02E6
	lda     _yBall
	jsr     pusha0
	ldy     _index
	lda     _BRICKS_Y,y
	clc
	adc     #$10
	bcc     L02EC
	ldx     #$01
L02EC:	jsr     tosicmp
	bcs     L02E6
	ldx     #$00
	lda     _xBall
	clc
	adc     #$08
	bcc     L02ED
	inx
L02ED:	stx     tmp1
	ora     tmp1
	bne     L02E3
L02E6:	jmp     L04F0
L02E3:	lda     #$08
;
; else if (xBall < BRICKS_X[index] && xBall + 8 >= BRICKS_X[index]) dirBall = NW;
;
	jmp     L04D4
L04F0:	lda     _xBall
	jsr     pusha0
	ldy     _index
	lda     _BRICKS_X,y
	jsr     tosicmp0
	bcs     L04F1
	ldx     #$00
	lda     _xBall
	clc
	adc     #$08
	bcc     L02F7
	inx
L02F7:	jsr     pushax
	ldy     _index
	lda     _BRICKS_X,y
	jsr     tosicmp0
	bcc     L04F1
	lda     #$08
;
; else dirBall = SE;
;
	jmp     L04D4
L04F1:	lda     #$04
;
; break;
;
	jmp     L04D4
;
; if (xBall < BRICKS_X[index] && xBall + 8 >= BRICKS_X[index]) dirBall = SW;
;
L04F2:	lda     _xBall
	jsr     pusha0
	ldy     _index
	lda     _BRICKS_X,y
	jsr     tosicmp0
	bcs     L04F3
	ldx     #$00
	lda     _xBall
	clc
	adc     #$08
	bcc     L0307
	inx
L0307:	jsr     pushax
	ldy     _index
	lda     _BRICKS_X,y
	jsr     tosicmp0
	jcs     L04F7
;
; else dirBall = NE;
;
L04F3:	lda     #$02
;
; break;
;
	jmp     L04D4
;
; if (xBall < BRICKS_X[index] + 32 && xBall + 8 >= BRICKS_X[index] + 32) dirBall = SE;
;
L04F4:	lda     _xBall
	jsr     pusha0
	ldy     _index
	lda     _BRICKS_X,y
	clc
	adc     #$20
	bcc     L0316
	ldx     #$01
L0316:	jsr     tosicmp
	bcs     L04F5
	ldx     #$00
	lda     _xBall
	clc
	adc     #$08
	bcc     L0318
	inx
L0318:	jsr     pushax
	ldy     _index
	ldx     #$00
	lda     _BRICKS_X,y
	clc
	adc     #$20
	bcc     L031B
	inx
L031B:	jsr     tosicmp
	bcc     L04F5
	lda     #$04
;
; else dirBall = NW;
;
	jmp     L04D4
L04F5:	lda     #$08
;
; break;
;
	jmp     L04D4
;
; if (xBall < BRICKS_X[index] + 32 && xBall + 8 >= BRICKS_X[index] + 32) dirBall = NE;
;
L04F6:	lda     _xBall
	jsr     pusha0
	ldy     _index
	lda     _BRICKS_X,y
	clc
	adc     #$20
	bcc     L0328
	ldx     #$01
L0328:	jsr     tosicmp
	bcs     L04F7
	ldx     #$00
	lda     _xBall
	clc
	adc     #$08
	bcc     L032A
	inx
L032A:	jsr     pushax
	ldy     _index
	ldx     #$00
	lda     _BRICKS_X,y
	clc
	adc     #$20
	bcc     L032D
	inx
L032D:	jsr     tosicmp
	bcc     L04F7
	lda     #$02
;
; else dirBall = SW;
;
	jmp     L04D4
L04F7:	lda     #$06
L04D4:	sta     _dirBall
;
; X = HBYTE_ADDRESSES[index];
;
L02DF:	ldy     _index
	lda     _HBYTE_ADDRESSES,y
	sta     _X
;
; Y = LBYTE_ADDRESSES[index];
;
	ldy     _index
	lda     _LBYTE_ADDRESSES,y
	sta     _Y
;
; waitVBlank();
;
	jsr     _waitVBlank
;
; writeBrickToPPU();
;
	jsr     _writeBrickToPPU
;
; resetScrollRegister();
;
	jsr     _resetScrollRegister
;
; --LEVEL_NB[0];
;
	dec     _LEVEL_NB
;
; if (LEVEL_NB[0] == 0) {playing = FALSE; writeWinToPPU();}
;
	lda     _LEVEL_NB
	bne     L02BA
	sta     _playing
	jmp     _writeWinToPPU
;
; for (index = 0; index < sizeof(LEVEL[0]); ++index)
;
L04F8:	inc     _index
	jmp     L04EE
;
; }
;
L02BA:	rts

.endproc

; ---------------------------------------------------------------
; void __near__ frameRoutine (void)
; ---------------------------------------------------------------

.segment	"CODE"

.proc	_frameRoutine: near

.segment	"CODE"

;
; waitVBlank();
;
	jsr     _waitVBlank
;
; OAM_ADDRESS_REGISTER = 0;
;
	lda     #$00
	sta     $2003
;
; OAM_DMA_REGISTER = 2;
;
	lda     #$02
	sta     $4014
;
; resetScrollRegister();
;
	jmp     _resetScrollRegister

.endproc

; ---------------------------------------------------------------
; void __near__ readInput (void)
; ---------------------------------------------------------------

.segment	"CODE"

.proc	_readInput: near

.segment	"CODE"

;
; unsigned char test = 0;//TO DELETE
;
	lda     #$00
	jsr     pusha
;
; inputStatus = 0;
;
	sta     _inputStatus
;
; JOYPAD1_REGISTER = 1;
;
	lda     #$01
	sta     $4016
;
; JOYPAD1_REGISTER = 0;
;
	lda     #$00
	sta     $4016
;
; for (index = 8; index > 0; --index)
;
	lda     #$08
	sta     _index
L04FA:	lda     _index
	beq     L0390
;
; test = (JOYPAD1_REGISTER & 1);
;
	lda     $4016
	and     #$01
	ldy     #$00
	sta     (sp),y
;
; inputStatus = inputStatus | (test << index-1);
;
	sta     ptr1
	lda     _index
	sec
	sbc     #$01
	tay
	lda     ptr1
L04FB:	asl     a
	dey
	bpl     L04FB
	ror     a
	ora     _inputStatus
	sta     _inputStatus
;
; for (index = 8; index > 0; --index)
;
	dec     _index
	jmp     L04FA
;
; }
;
L0390:	jmp     incsp1

.endproc

; ---------------------------------------------------------------
; void __near__ writeBrickToPPU (void)
; ---------------------------------------------------------------

.segment	"CODE"

.proc	_writeBrickToPPU: near

.segment	"CODE"

;
; PPU_ADDRESS_REGISTER = X;
;
	lda     _X
	sta     $2006
;
; PPU_ADDRESS_REGISTER = Y;
;
	lda     _Y
	sta     $2006
;
; if (LEVEL[0][index] == FALSE)
;
	ldy     _index
	lda     _LEVEL,y
	bne     L04FE
;
; PPU_DATA_REGISTER = 0x80;
;
	lda     #$80
	sta     $2007
;
; PPU_DATA_REGISTER = 0x81;
;
	lda     #$81
	sta     $2007
;
; PPU_DATA_REGISTER = 0x81;
;
	sta     $2007
;
; PPU_DATA_REGISTER = 0x82;
;
	lda     #$82
;
; else
;
	jmp     L04FC
;
; PPU_DATA_REGISTER = 0x83;
;
L04FE:	lda     #$83
	sta     $2007
;
; PPU_DATA_REGISTER = 0x83;
;
	sta     $2007
;
; PPU_DATA_REGISTER = 0x83;
;
	sta     $2007
;
; PPU_DATA_REGISTER = 0x83;
;
L04FC:	sta     $2007
;
; Y += 32;
;
	lda     #$20
	clc
	adc     _Y
	sta     _Y
;
; if (Y < 32) ++X;
;
	cmp     #$20
	bcs     L04FF
	inc     _X
;
; PPU_ADDRESS_REGISTER = X;
;
L04FF:	lda     _X
	sta     $2006
;
; PPU_ADDRESS_REGISTER = Y;
;
	lda     _Y
	sta     $2006
;
; if (LEVEL[0][index] == FALSE)
;
	ldy     _index
	lda     _LEVEL,y
	bne     L0500
;
; PPU_DATA_REGISTER = 0x90;
;
	lda     #$90
	sta     $2007
;
; PPU_DATA_REGISTER = 0x91;
;
	lda     #$91
	sta     $2007
;
; PPU_DATA_REGISTER = 0x91;
;
	sta     $2007
;
; PPU_DATA_REGISTER = 0x92;
;
	lda     #$92
;
; else
;
	jmp     L04FD
;
; PPU_DATA_REGISTER = 0x83;
;
L0500:	lda     #$83
	sta     $2007
;
; PPU_DATA_REGISTER = 0x83;
;
	sta     $2007
;
; PPU_DATA_REGISTER = 0x83;
;
	sta     $2007
;
; PPU_DATA_REGISTER = 0x83;
;
L04FD:	sta     $2007
;
; }
;
	rts

.endproc

; ---------------------------------------------------------------
; void __near__ writeBackgroundToPPU (void)
; ---------------------------------------------------------------

.segment	"CODE"

.proc	_writeBackgroundToPPU: near

.segment	"CODE"

;
; waitVBlank();
;
	jsr     _waitVBlank
;
; turnScreenOff();
;
	jsr     _turnScreenOff
;
; resetScrollRegister();
;
	jsr     _resetScrollRegister
;
; for (index = 0; index < sizeof(LEVEL[0]); ++index)
;
	lda     #$00
	sta     _index
L0501:	lda     _index
	cmp     #$40
	bcs     L0444
;
; X = HBYTE_ADDRESSES[index];
;
	ldy     _index
	lda     _HBYTE_ADDRESSES,y
	sta     _X
;
; Y = LBYTE_ADDRESSES[index];
;
	ldy     _index
	lda     _LBYTE_ADDRESSES,y
	sta     _Y
;
; writeBrickToPPU();
;
	jsr     _writeBrickToPPU
;
; for (index = 0; index < sizeof(LEVEL[0]); ++index)
;
	inc     _index
	jmp     L0501
;
; resetScrollRegister();
;
L0444:	jsr     _resetScrollRegister
;
; turnScreenOn();
;
	jsr     _turnScreenOn
;
; waitVBlank();
;
	jmp     _waitVBlank

.endproc

; ---------------------------------------------------------------
; void __near__ writePauseToPPU (void)
; ---------------------------------------------------------------

.segment	"CODE"

.proc	_writePauseToPPU: near

.segment	"CODE"

;
; waitVBlank();
;
	jsr     _waitVBlank
;
; PPU_ADDRESS_REGISTER = 0x23;
;
	lda     #$23
	sta     $2006
;
; PPU_ADDRESS_REGISTER = 0x88;
;
	lda     #$88
	sta     $2006
;
; for (index = 0; index < sizeof(PAUSE_TEXT); ++index)
;
	lda     #$00
	sta     _index
L0503:	lda     _index
	cmp     #$07
	bcs     L042B
;
; if (paused == FALSE) PPU_DATA_REGISTER = 0;
;
	lda     _paused
;
; else PPU_DATA_REGISTER = PAUSE_TEXT[index];
;
	beq     L0502
	ldy     _index
	lda     _PAUSE_TEXT,y
L0502:	sta     $2007
;
; for (index = 0; index < sizeof(PAUSE_TEXT); ++index)
;
	inc     _index
	jmp     L0503
;
; resetScrollRegister();
;
L042B:	jmp     _resetScrollRegister

.endproc

; ---------------------------------------------------------------
; void __near__ writeGameOverToPPU (void)
; ---------------------------------------------------------------

.segment	"CODE"

.proc	_writeGameOverToPPU: near

.segment	"CODE"

;
; waitVBlank();
;
	jsr     _waitVBlank
;
; PPU_ADDRESS_REGISTER = 0x22;
;
	lda     #$22
	sta     $2006
;
; PPU_ADDRESS_REGISTER = 0x8C;
;
	lda     #$8C
	sta     $2006
;
; for (index = 0; index < sizeof(GAME_OVER); ++index)
;
	lda     #$00
	sta     _index
L0504:	lda     _index
	cmp     #$0A
	bcs     L03FF
;
; PPU_DATA_REGISTER = GAME_OVER[index];
;
	ldy     _index
	lda     _GAME_OVER,y
	sta     $2007
;
; for (index = 0; index < sizeof(GAME_OVER); ++index)
;
	inc     _index
	jmp     L0504
;
; }
;
L03FF:	rts

.endproc

; ---------------------------------------------------------------
; void __near__ writeWinToPPU (void)
; ---------------------------------------------------------------

.segment	"CODE"

.proc	_writeWinToPPU: near

.segment	"CODE"

;
; waitVBlank();
;
	jsr     _waitVBlank
;
; PPU_ADDRESS_REGISTER = 0x22;
;
	lda     #$22
	sta     $2006
;
; PPU_ADDRESS_REGISTER = 0x8D;
;
	lda     #$8D
	sta     $2006
;
; for (index = 0; index < sizeof(WIN); ++index)
;
	lda     #$00
	sta     _index
L0505:	lda     _index
	cmp     #$08
	bcs     L0415
;
; PPU_DATA_REGISTER = WIN[index];
;
	ldy     _index
	lda     _WIN,y
	sta     $2007
;
; for (index = 0; index < sizeof(WIN); ++index)
;
	inc     _index
	jmp     L0505
;
; }
;
L0415:	rts

.endproc

; ---------------------------------------------------------------
; void __near__ writeSpritesToPPU (void)
; ---------------------------------------------------------------

.segment	"CODE"

.proc	_writeSpritesToPPU: near

.segment	"CODE"

;
; index2 = 0;
;
	lda     #$00
	sta     _index2
;
; for (index = 0; index < sizeof(PADDLE); ++index)
;
	sta     _index
L0507:	lda     _index
	cmp     #$04
	bcs     L034B
;
; SPRITE_TABLE[index2] = yPaddle;
;
	ldy     _index2
	lda     _yPaddle
	sta     _SPRITE_TABLE,y
;
; ++index2;
;
	inc     _index2
;
; SPRITE_TABLE[index2] = PADDLE[index];
;
	lda     #<(_SPRITE_TABLE)
	ldx     #>(_SPRITE_TABLE)
	clc
	adc     _index2
	bcc     L035A
	inx
L035A:	sta     ptr1
	stx     ptr1+1
	ldy     _index
	lda     _PADDLE,y
	ldy     #$00
	sta     (ptr1),y
;
; ++index2;
;
	inc     _index2
;
; SPRITE_TABLE[index2] = 1 + ((index==3)?SPRITE_VERTICAL_FLIP:0);
;
	lda     #<(_SPRITE_TABLE)
	ldx     #>(_SPRITE_TABLE)
	clc
	adc     _index2
	bcc     L0361
	inx
L0361:	sta     ptr1
	stx     ptr1+1
	lda     _index
	cmp     #$03
	bne     L0508
	lda     #$40
	jmp     L0367
L0508:	tya
L0367:	clc
	adc     #$01
	sta     (ptr1),y
;
; ++index2;
;
	inc     _index2
;
; SPRITE_TABLE[index2] = xPaddle + (index << 3);
;
	lda     #<(_SPRITE_TABLE)
	ldx     #>(_SPRITE_TABLE)
	clc
	adc     _index2
	bcc     L036D
	inx
L036D:	sta     ptr1
	stx     ptr1+1
	lda     _index
	asl     a
	asl     a
	asl     a
	clc
	adc     _xPaddle
	sta     (ptr1),y
;
; ++index2;
;
	inc     _index2
;
; for (index = 0; index < sizeof(PADDLE); ++index)
;
	inc     _index
	jmp     L0507
;
; SPRITE_TABLE[index2] = yBall;
;
L034B:	ldy     _index2
	lda     _yBall
	sta     _SPRITE_TABLE,y
;
; ++index2;
;
	inc     _index2
;
; SPRITE_TABLE[index2] = 0;
;
	ldy     _index2
	lda     #$00
	sta     _SPRITE_TABLE,y
;
; ++index2;
;
	inc     _index2
;
; SPRITE_TABLE[index2] = 3;
;
	ldy     _index2
	lda     #$03
	sta     _SPRITE_TABLE,y
;
; ++index2;
;
	inc     _index2
;
; SPRITE_TABLE[index2] = xBall;
;
	ldy     _index2
	lda     _xBall
	sta     _SPRITE_TABLE,y
;
; ++index2;
;
	inc     _index2
;
; }
;
	rts

.endproc

; ---------------------------------------------------------------
; void __near__ turnScreenOff (void)
; ---------------------------------------------------------------

.segment	"CODE"

.proc	_turnScreenOff: near

.segment	"CODE"

;
; PPU_CTRL_REGISTER = 0;
;
	lda     #$00
	sta     $2000
;
; PPU_MASK_REGISTER = 0;
;
	sta     $2001
;
; }
;
	rts

.endproc

; ---------------------------------------------------------------
; void __near__ turnScreenOn (void)
; ---------------------------------------------------------------

.segment	"CODE"

.proc	_turnScreenOn: near

.segment	"CODE"

;
; PPU_CTRL_REGISTER = 0x90;
;
	lda     #$90
	sta     $2000
;
; PPU_MASK_REGISTER = 0x1e;
;
	lda     #$1E
	sta     $2001
;
; }
;
	rts

.endproc

; ---------------------------------------------------------------
; void __near__ loadPalette (void)
; ---------------------------------------------------------------

.segment	"CODE"

.proc	_loadPalette: near

.segment	"CODE"

;
; PPU_ADDRESS_REGISTER= 0x3f;
;
	lda     #$3F
	sta     $2006
;
; PPU_ADDRESS_REGISTER= 0x00;
;
	lda     #$00
	sta     $2006
;
; for(index = 0; index < sizeof(PALETTE); ++index)
;
	sta     _index
L0509:	lda     _index
	cmp     #$10
	bcs     L050A
;
; PPU_DATA_REGISTER = PALETTE[index];
;
	ldy     _index
	lda     _PALETTE,y
	sta     $2007
;
; for(index = 0; index < sizeof(PALETTE); ++index)
;
	inc     _index
	jmp     L0509
;
; for(index = 0; index < sizeof(PALETTE); ++index)
;
L050A:	lda     #$00
	sta     _index
L050B:	lda     _index
	cmp     #$10
	bcs     L050C
;
; PPU_DATA_REGISTER = PALETTE[index];
;
	ldy     _index
	lda     _PALETTE,y
	sta     $2007
;
; for(index = 0; index < sizeof(PALETTE); ++index)
;
	inc     _index
	jmp     L050B
;
; PPU_ADDRESS_REGISTER = 0x23;
;
L050C:	lda     #$23
	sta     $2006
;
; PPU_ADDRESS_REGISTER = 0xC0;
;
	lda     #$C0
	sta     $2006
;
; for( index = 0; index < sizeof(Attrib_Table); ++index )
;
	lda     #$00
	sta     _index
L050D:	lda     _index
	cmp     #$40
	bcs     L0491
;
; PPU_DATA_REGISTER = Attrib_Table[index];
;
	ldy     _index
	lda     _Attrib_Table,y
	sta     $2007
;
; for( index = 0; index < sizeof(Attrib_Table); ++index )
;
	inc     _index
	jmp     L050D
;
; }
;
L0491:	rts

.endproc

; ---------------------------------------------------------------
; void __near__ resetScrollRegister (void)
; ---------------------------------------------------------------

.segment	"CODE"

.proc	_resetScrollRegister: near

.segment	"CODE"

;
; PPU_ADDRESS_REGISTER = 0;
;
	lda     #$00
	sta     $2006
;
; PPU_ADDRESS_REGISTER = 0;
;
	sta     $2006
;
; SCROLL_REGISTER = 0;
;
	sta     $2005
;
; SCROLL_REGISTER = 0;
;
	sta     $2005
;
; }
;
	rts

.endproc

; ---------------------------------------------------------------
; void __near__ waitVBlank (void)
; ---------------------------------------------------------------

.segment	"CODE"

.proc	_waitVBlank: near

.segment	"CODE"

;
; while (NMIFlag == 0);
;
L050E:	lda     _NMIFlag
	beq     L050E
;
; NMIFlag = 0;
;
	lda     #$00
	sta     _NMIFlag
;
; }
;
	rts

.endproc

; ---------------------------------------------------------------
; void __near__ main (void)
; ---------------------------------------------------------------

.segment	"CODE"

.proc	_main: near

.segment	"CODE"

;
; turnScreenOff();
;
	jsr     _turnScreenOff
;
; loadPalette();
;
	jsr     _loadPalette
;
; resetScrollRegister();
;
	jsr     _resetScrollRegister
;
; turnScreenOn();
;
	jsr     _turnScreenOn
;
; writeBackgroundToPPU();
;
	jsr     _writeBackgroundToPPU
;
; while (playing)
;
	jmp     L01F2
;
; inputListener();
;
L01F0:	jsr     _inputListener
;
; if (pauseTransition == TRUE && FrameCounter >= 30)
;
	lda     _pauseTransition
	cmp     #$01
	bne     L0511
	lda     _FrameCounter
	cmp     #$1E
	bcc     L0511
;
; pauseTransition = FALSE;
;
	lda     #$00
	sta     _pauseTransition
;
; if (paused == FALSE)
;
L0511:	lda     _paused
	bne     L01FB
;
; updatePos();
;
	jsr     _updatePos
;
; spriteCollision();
;
	jsr     _spriteCollision
;
; writeSpritesToPPU();
;
	jsr     _writeSpritesToPPU
;
; frameRoutine();
;
L01FB:	jsr     _frameRoutine
;
; while (playing)
;
L01F2:	lda     _playing
	bne     L01F0
;
; }
;
	rts

.endproc

