;
; File generated by cc65 v 2.16 - Git 035baa4
;
	.fopt		compiler,"cc65 v 2.16 - Git 035baa4"
	.setcpu		"6502"
	.smart		on
	.autoimport	on
	.case		on
	.debuginfo	off
	.importzp	sp, sreg, regsave, regbank
	.importzp	tmp1, tmp2, tmp3, tmp4, ptr1, ptr2, ptr3, ptr4
	.macpack	longbranch
	.forceimport	__STARTUP__
	.export		_NMIFlag
	.export		_FrameCounter
	.export		_index
	.export		_index2
	.export		_index3
	.export		_spriteX
	.export		_spriteY
	.export		_xPaddle
	.export		_yPaddle
	.export		_dirPaddle
	.export		_speedPaddle
	.export		_xBall
	.export		_yBall
	.export		_dirBall
	.export		_speedBall
	.export		_inputStatus
	.export		_launched
	.export		_paused
	.export		_pauseTransition
	.export		_TEXT
	.export		_PAUSE_TEXT
	.export		_PADDLE
	.export		_LEVEL1_X
	.export		_LEVEL1_Y
	.export		_LEVEL1_HBYTE_POS
	.export		_LEVEL1_LBYTE_POS
	.export		_LEVEL1_DESTROYED
	.export		_PALETTE
	.export		_Attrib_Table
	.export		_SPRITE_TABLE
	.export		_updatePos
	.export		_inputListener
	.export		_spriteCollision
	.export		_frameRoutine
	.export		_readInput
	.export		_writeBackgroundToPPU
	.export		_writeSpritesToPPU
	.export		_turnScreenOff
	.export		_turnScreenOn
	.export		_loadPalette
	.export		_resetScrollRegister
	.export		_waitVBlank
	.export		_main

.segment	"DATA"

_xPaddle:
	.byte	$00
_yPaddle:
	.byte	$B0
_dirPaddle:
	.byte	$03
_speedPaddle:
	.byte	$02
_xBall:
	.byte	$0C
_yBall:
	.byte	$A8
_dirBall:
	.byte	$03
_speedBall:
	.byte	$02
_launched:
	.byte	$01
_paused:
	.byte	$01
_pauseTransition:
	.byte	$01
_LEVEL1_DESTROYED:
	.byte	$01
	.byte	$01
	.byte	$01
	.byte	$01
	.byte	$01
	.byte	$01
	.byte	$01
	.byte	$01
	.byte	$01
	.byte	$01
	.byte	$01
	.byte	$01
	.byte	$01
	.byte	$01
	.byte	$01
	.byte	$01
	.byte	$01
	.byte	$01
	.byte	$01
	.byte	$01
	.byte	$01
	.byte	$01
	.byte	$01
	.byte	$01
	.byte	$01
	.byte	$01
	.byte	$01
	.byte	$01
	.byte	$01
	.byte	$01
	.byte	$01
	.byte	$01
	.byte	$01
	.byte	$01
	.byte	$01
	.byte	$01
	.byte	$01
	.byte	$01
	.byte	$01
	.byte	$01
	.byte	$01
	.byte	$01
	.byte	$01
	.byte	$01
	.byte	$01
	.byte	$01
	.byte	$01
	.byte	$01

.segment	"RODATA"

_TEXT:
	.byte	$4E,$45,$50,$48,$4F,$49,$44,$00
_PAUSE_TEXT:
	.byte	$50,$41,$55,$53,$45,$44,$00
_PADDLE:
	.byte	$01
	.byte	$02
	.byte	$02
	.byte	$01
_LEVEL1_X:
	.byte	$00
	.byte	$20
	.byte	$40
	.byte	$60
	.byte	$10
	.byte	$30
	.byte	$50
	.byte	$70
	.byte	$90
	.byte	$00
	.byte	$20
	.byte	$40
	.byte	$60
_LEVEL1_Y:
	.byte	$08
	.byte	$08
	.byte	$08
	.byte	$08
	.byte	$18
	.byte	$18
	.byte	$18
	.byte	$18
	.byte	$18
	.byte	$38
	.byte	$38
	.byte	$38
	.byte	$38
_LEVEL1_HBYTE_POS:
	.byte	$20
	.byte	$20
	.byte	$20
	.byte	$20
	.byte	$20
	.byte	$20
	.byte	$20
	.byte	$20
	.byte	$20
	.byte	$20
	.byte	$20
	.byte	$20
	.byte	$20
_LEVEL1_LBYTE_POS:
	.byte	$40
	.byte	$44
	.byte	$48
	.byte	$4C
	.byte	$82
	.byte	$86
	.byte	$8A
	.byte	$8E
	.byte	$92
	.byte	$C0
	.byte	$C4
	.byte	$C8
	.byte	$CC
_PALETTE:
	.byte	$30
	.byte	$20
	.byte	$10
	.byte	$00
	.byte	$30
	.byte	$02
	.byte	$03
	.byte	$04
	.byte	$30
	.byte	$01
	.byte	$21
	.byte	$3C
	.byte	$30
	.byte	$17
	.byte	$27
	.byte	$28
_Attrib_Table:
	.byte	$55
	.byte	$55
	.byte	$55
	.byte	$55
	.byte	$55
	.byte	$55
	.byte	$55
	.byte	$55
	.byte	$55
	.byte	$55
	.byte	$55
	.byte	$55
	.byte	$55
	.byte	$55
	.byte	$55
	.byte	$55
	.byte	$55
	.byte	$55
	.byte	$55
	.byte	$55
	.byte	$55
	.byte	$55
	.byte	$55
	.byte	$55
	.byte	$55
	.byte	$55
	.byte	$55
	.byte	$55
	.byte	$55
	.byte	$55
	.byte	$55
	.byte	$55
	.byte	$55
	.byte	$55
	.byte	$55
	.byte	$55
	.byte	$55
	.byte	$55
	.byte	$55
	.byte	$55
	.byte	$55
	.byte	$55
	.byte	$55
	.byte	$55
	.byte	$55
	.byte	$55
	.byte	$55
	.byte	$55
	.byte	$55
	.byte	$55
	.byte	$55
	.byte	$55
	.byte	$55
	.byte	$55
	.byte	$55
	.byte	$55
	.byte	$55
	.byte	$55
	.byte	$55
	.byte	$55
	.byte	$FF
	.byte	$FF
	.byte	$FF
	.byte	$FF

.segment	"BSS"

.segment	"ZEROPAGE"
.segment	"OAM"
.segment	"ZEROPAGE"
_NMIFlag:
	.res	1,$00
.segment	"ZEROPAGE"
_FrameCounter:
	.res	1,$00
.segment	"ZEROPAGE"
_index:
	.res	1,$00
.segment	"ZEROPAGE"
_index2:
	.res	1,$00
.segment	"ZEROPAGE"
_index3:
	.res	1,$00
.segment	"ZEROPAGE"
_spriteX:
	.res	1,$00
.segment	"ZEROPAGE"
_spriteY:
	.res	1,$00
.segment	"ZEROPAGE"
_inputStatus:
	.res	1,$00
.segment	"OAM"
_SPRITE_TABLE:
	.res	256,$00

; ---------------------------------------------------------------
; void __near__ updatePos (void)
; ---------------------------------------------------------------

.segment	"CODE"

.proc	_updatePos: near

.segment	"CODE"

;
; if (dirPaddle == E && xPaddle < 223) {
;
	lda     _dirPaddle
	cmp     #$03
	bne     L0291
	lda     _xPaddle
	cmp     #$DF
	bcs     L0291
;
; xPaddle += speedPaddle;
;
	lda     _speedPaddle
	clc
	adc     _xPaddle
	sta     _xPaddle
;
; if (launched == FALSE) xBall += speedPaddle;
;
	lda     _launched
	cmp     #$01
	bne     L0294
	lda     _speedPaddle
	clc
;
; else if (dirPaddle == W && xPaddle > 0) {
;
	jmp     L0299
L0291:	lda     _dirPaddle
	cmp     #$07
	bne     L0294
	lda     _xPaddle
	beq     L0294
;
; xPaddle -= speedPaddle;
;
	lda     _speedPaddle
	eor     #$FF
	sec
	adc     _xPaddle
	sta     _xPaddle
;
; if (launched == FALSE) xBall -= speedPaddle;
;
	lda     _launched
	cmp     #$01
	bne     L0294
	lda     _speedPaddle
	eor     #$FF
	sec
L0299:	adc     _xBall
	sta     _xBall
;
; if (launched == TRUE) {
;
L0294:	lda     _launched
	bne     L0131
;
; switch (dirBall) {
;
	lda     _dirBall
;
; }
;
	cmp     #$02
	beq     L0295
	cmp     #$04
	beq     L0296
	cmp     #$06
	beq     L0297
	cmp     #$08
	beq     L0298
	rts
;
; xBall += speedBall;
;
L0295:	lda     _speedBall
	clc
;
; break;
;
	jmp     L029F
;
; xBall += speedBall;
;
L0296:	lda     _speedBall
	clc
	adc     _xBall
	sta     _xBall
;
; yBall += speedBall;
;
	lda     _speedBall
	clc
;
; break;
;
	jmp     L029A
;
; xBall -= speedBall;
;
L0297:	lda     _speedBall
	eor     #$FF
	sec
	adc     _xBall
	sta     _xBall
;
; yBall += speedBall;
;
	lda     _speedBall
	clc
;
; break;
;
	jmp     L029A
;
; xBall -= speedBall;
;
L0298:	lda     _speedBall
	eor     #$FF
	sec
L029F:	adc     _xBall
	sta     _xBall
;
; yBall -= speedBall;
;
	lda     _speedBall
	eor     #$FF
	sec
L029A:	adc     _yBall
	sta     _yBall
;
; }
;
L0131:	rts

.endproc

; ---------------------------------------------------------------
; void __near__ inputListener (void)
; ---------------------------------------------------------------

.segment	"CODE"

.proc	_inputListener: near

.segment	"CODE"

;
; readInput();
;
	jsr     _readInput
;
; if ((inputStatus & JP1_START) != 0
;
	lda     _inputStatus
	and     #$10
;
; && pauseTransition == FALSE)
;
	beq     L02A7
	lda     _pauseTransition
	cmp     #$01
	bne     L02A7
;
; paused = (paused == TRUE)?FALSE:TRUE;
;
	lda     _paused
	bne     L02A5
	lda     #$01
	jmp     L02A6
L02A5:	lda     #$00
L02A6:	sta     _paused
;
; pauseTransition = TRUE;
;
	lda     #$00
	sta     _pauseTransition
;
; FrameCounter = 0;
;
	sta     _FrameCounter
;
; writeBackgroundToPPU();
;
	jsr     _writeBackgroundToPPU
;
; if (paused == FALSE)
;
L02A7:	lda     _paused
	cmp     #$01
	bne     L010F
;
; if ((inputStatus & JP1_LEFT) != 0)
;
	lda     _inputStatus
	and     #$02
	beq     L02A8
;
; dirPaddle = W;
;
	lda     #$07
	sta     _dirPaddle
;
; if (launched == FALSE) dirBall = NW;
;
	lda     _launched
	cmp     #$01
	bne     L02AB
	lda     #$08
	sta     _dirBall
;
; else if ((inputStatus & JP1_RIGHT) != 0) //255-size of paddle
;
	jmp     L02AB
L02A8:	lda     _inputStatus
	and     #$01
	beq     L02AA
;
; dirPaddle = E;
;
	lda     #$03
	sta     _dirPaddle
;
; if (launched == FALSE) dirBall = NE;
;
	lda     _launched
	cmp     #$01
	bne     L02AB
	lda     #$02
	sta     _dirBall
;
; else dirPaddle = NESW;
;
	jmp     L02AB
L02AA:	sta     _dirPaddle
;
; if ((inputStatus & JP1_A) != 0 && launched == FALSE)
;
L02AB:	lda     _inputStatus
	and     #$80
	beq     L02AD
	lda     _launched
	cmp     #$01
	beq     L02B0
L02AD:	rts
;
; launched = TRUE;
;
L02B0:	lda     #$00
	sta     _launched
;
; }
;
L010F:	rts

.endproc

; ---------------------------------------------------------------
; void __near__ spriteCollision (void)
; ---------------------------------------------------------------

.segment	"CODE"

.proc	_spriteCollision: near

.segment	"CODE"

;
; if (xPaddle + 4 * 8 >= xBall && xPaddle <= xBall + 8
;
	ldx     #$00
	lda     _xPaddle
	clc
	adc     #$20
	bcc     L014D
	inx
L014D:	cmp     _xBall
	txa
	sbc     #$00
	bcc     L02B9
	lda     _xPaddle
	jsr     pusha0
	lda     _xBall
;
; && yPaddle <= yBall + 8 &&  yPaddle + 8 >= yBall)
;
	clc
	adc     #$08
	bcc     L014F
	ldx     #$01
L014F:	jsr     tosicmp
	beq     L02B3
	bcs     L02B9
L02B3:	lda     _yPaddle
	jsr     pusha0
	lda     _yBall
	clc
	adc     #$08
	bcc     L0150
	ldx     #$01
L0150:	jsr     tosicmp
	beq     L02B4
	bcs     L02B9
L02B4:	ldx     #$00
	lda     _yPaddle
	clc
	adc     #$08
	bcc     L0151
	inx
L0151:	cmp     _yBall
	txa
	sbc     #$00
	bcc     L02B9
;
; if (dirBall == SE) dirBall = NE;
;
	lda     _dirBall
	cmp     #$04
	bne     L02B8
	lda     #$02
;
; else dirBall = NW;
;
	jmp     L02B1
L02B8:	lda     #$08
L02B1:	sta     _dirBall
;
; switch (dirBall) {
;
L02B9:	lda     _dirBall
;
; }
;
	cmp     #$02
	beq     L02BA
	cmp     #$04
	beq     L02C0
	cmp     #$06
	beq     L02C6
	cmp     #$08
	beq     L02CB
	rts
;
; if (xBall >= BALL_MAX_X && yBall <= 0) dirBall = SW;
;
L02BA:	lda     _xBall
	cmp     #$F7
	bcc     L02BE
	lda     _yBall
	bne     L02BE
	lda     #$06
;
; else if (yBall <= 0) dirBall = SE;
;
	jmp     L02B2
L02BE:	lda     _yBall
	bne     L02BF
	lda     #$04
;
; else if (xBall >= BALL_MAX_X) dirBall = NW;
;
	jmp     L02B2
L02BF:	lda     _xBall
	cmp     #$F7
	bcc     L015C
	lda     #$08
;
; break;
;
	jmp     L02B2
;
; if (xBall >= BALL_MAX_X && yBall >= BALL_MAX_Y) dirBall = NW;
;
L02C0:	lda     _xBall
	cmp     #$F7
	bcc     L02C4
	lda     _yBall
	cmp     #$E6
	bcc     L02C4
	lda     #$08
;
; else if (yBall >= BALL_MAX_Y) dirBall = NE;
;
	jmp     L02B2
L02C4:	lda     _yBall
	cmp     #$E6
;
; else if (xBall >= BALL_MAX_X) dirBall = SW;
;
	bcs     L02D0
	lda     _xBall
	cmp     #$F7
	bcc     L015C
	lda     #$06
;
; break;
;
	jmp     L02B2
;
; if (xBall <= 0 && yBall >= BALL_MAX_Y) dirBall = NE;
;
L02C6:	lda     _xBall
	bne     L02C9
	lda     _yBall
	cmp     #$E6
	bcs     L02D0
;
; else if (yBall >= BALL_MAX_Y) dirBall = NW;
;
L02C9:	lda     _yBall
	cmp     #$E6
	bcc     L02CA
	lda     #$08
;
; else if (xBall <= 0) dirBall = SE;
;
	jmp     L02B2
L02CA:	lda     _xBall
	bne     L015C
	lda     #$04
;
; break;
;
	jmp     L02B2
;
; if (xBall <= 0 && yBall <= 0) dirBall = SE;
;
L02CB:	lda     _xBall
	bne     L02CE
	lda     _yBall
	bne     L02CE
	lda     #$04
;
; else if (yBall <= 0) dirBall = SW;
;
	jmp     L02B2
L02CE:	lda     _yBall
	bne     L02CF
	lda     #$06
;
; else if (xBall <= 0) dirBall = NE;
;
	jmp     L02B2
L02CF:	lda     _xBall
	bne     L015C
L02D0:	lda     #$02
L02B2:	sta     _dirBall
;
; }
;
L015C:	rts

.endproc

; ---------------------------------------------------------------
; void __near__ frameRoutine (void)
; ---------------------------------------------------------------

.segment	"CODE"

.proc	_frameRoutine: near

.segment	"CODE"

;
; waitVBlank();
;
	jsr     _waitVBlank
;
; OAM_ADDRESS_REGISTER = 0;
;
	lda     #$00
	sta     $2003
;
; OAM_DMA_REGISTER = 2;
;
	lda     #$02
	sta     $4014
;
; resetScrollRegister();
;
	jmp     _resetScrollRegister

.endproc

; ---------------------------------------------------------------
; void __near__ readInput (void)
; ---------------------------------------------------------------

.segment	"CODE"

.proc	_readInput: near

.segment	"CODE"

;
; unsigned char test = 0;//TO DELETE
;
	lda     #$00
	jsr     pusha
;
; inputStatus = 0;
;
	sta     _inputStatus
;
; JOYPAD1_REGISTER = 1;
;
	lda     #$01
	sta     $4016
;
; JOYPAD1_REGISTER = 0;
;
	lda     #$00
	sta     $4016
;
; for (index = 8; index > 0; --index)
;
	lda     #$08
	sta     _index
L02D1:	lda     _index
	beq     L01EE
;
; test = (JOYPAD1_REGISTER & 1);
;
	lda     $4016
	and     #$01
	ldy     #$00
	sta     (sp),y
;
; inputStatus = inputStatus | (test << index-1);
;
	sta     ptr1
	lda     _index
	sec
	sbc     #$01
	tay
	lda     ptr1
L02D2:	asl     a
	dey
	bpl     L02D2
	ror     a
	ora     _inputStatus
	sta     _inputStatus
;
; for (index = 8; index > 0; --index)
;
	dec     _index
	jmp     L02D1
;
; }
;
L01EE:	jmp     incsp1

.endproc

; ---------------------------------------------------------------
; void __near__ writeBackgroundToPPU (void)
; ---------------------------------------------------------------

.segment	"CODE"

.proc	_writeBackgroundToPPU: near

.segment	"CODE"

;
; waitVBlank();
;
	jsr     _waitVBlank
;
; resetScrollRegister();
;
	jsr     _resetScrollRegister
;
; index2 = 0x20;// high byte
;
	lda     #$20
	sta     _index2
;
; index3 = 0x20;// low byte
;
	sta     _index3
;
; for (index = 0; index < sizeof(LEVEL1_DESTROYED); ++index)
;
	lda     #$00
	sta     _index
L02D4:	lda     _index
	cmp     #$30
	bcs     L020E
;
; PPU_ADDRESS_REGISTER = index2;
;
	lda     _index2
	sta     $2006
;
; PPU_ADDRESS_REGISTER = index3;
;
	lda     _index3
	sta     $2006
;
; if (LEVEL1_DESTROYED[index] == FALSE)
;
	ldy     _index
	lda     _LEVEL1_DESTROYED,y
	cmp     #$01
	bne     L02D5
;
; PPU_DATA_REGISTER = 0x80;
;
	lda     #$80
	sta     $2007
;
; PPU_DATA_REGISTER = 0x81;
;
	lda     #$81
	sta     $2007
;
; PPU_DATA_REGISTER = 0x81;
;
	sta     $2007
;
; PPU_DATA_REGISTER = 0x82;
;
	lda     #$82
;
; else
;
	jmp     L02D3
;
; PPU_DATA_REGISTER = '@';
;
L02D5:	lda     #$40
L02D3:	sta     $2007
;
; index3 += 4;
;
	lda     #$04
	clc
	adc     _index3
	sta     _index3
;
; for (index = 0; index < sizeof(LEVEL1_DESTROYED); ++index)
;
	inc     _index
	jmp     L02D4
;
; resetScrollRegister();
;
L020E:	jsr     _resetScrollRegister
;
; resetScrollRegister();
;
	jmp     _resetScrollRegister

.endproc

; ---------------------------------------------------------------
; void __near__ writeSpritesToPPU (void)
; ---------------------------------------------------------------

.segment	"CODE"

.proc	_writeSpritesToPPU: near

.segment	"CODE"

;
; index2 = 0;
;
	lda     #$00
	sta     _index2
;
; for (index = 0; index < sizeof(PADDLE); ++index)
;
	sta     _index
L02D7:	lda     _index
	cmp     #$04
	bcs     L01A9
;
; SPRITE_TABLE[index2] = yPaddle;
;
	ldy     _index2
	lda     _yPaddle
	sta     _SPRITE_TABLE,y
;
; ++index2;
;
	inc     _index2
;
; SPRITE_TABLE[index2] = PADDLE[index];
;
	lda     #<(_SPRITE_TABLE)
	ldx     #>(_SPRITE_TABLE)
	clc
	adc     _index2
	bcc     L01B8
	inx
L01B8:	sta     ptr1
	stx     ptr1+1
	ldy     _index
	lda     _PADDLE,y
	ldy     #$00
	sta     (ptr1),y
;
; ++index2;
;
	inc     _index2
;
; SPRITE_TABLE[index2] = 1 + ((index==3)?SPRITE_VERTICAL_FLIP:0);
;
	lda     #<(_SPRITE_TABLE)
	ldx     #>(_SPRITE_TABLE)
	clc
	adc     _index2
	bcc     L01BF
	inx
L01BF:	sta     ptr1
	stx     ptr1+1
	lda     _index
	cmp     #$03
	bne     L02D8
	lda     #$40
	jmp     L01C5
L02D8:	tya
L01C5:	clc
	adc     #$01
	sta     (ptr1),y
;
; ++index2;
;
	inc     _index2
;
; SPRITE_TABLE[index2] = xPaddle + (index << 3);
;
	lda     #<(_SPRITE_TABLE)
	ldx     #>(_SPRITE_TABLE)
	clc
	adc     _index2
	bcc     L01CB
	inx
L01CB:	sta     ptr1
	stx     ptr1+1
	lda     _index
	asl     a
	asl     a
	asl     a
	clc
	adc     _xPaddle
	sta     (ptr1),y
;
; ++index2;
;
	inc     _index2
;
; for (index = 0; index < sizeof(PADDLE); ++index)
;
	inc     _index
	jmp     L02D7
;
; SPRITE_TABLE[index2] = yBall;
;
L01A9:	ldy     _index2
	lda     _yBall
	sta     _SPRITE_TABLE,y
;
; ++index2;
;
	inc     _index2
;
; SPRITE_TABLE[index2] = 0;
;
	ldy     _index2
	lda     #$00
	sta     _SPRITE_TABLE,y
;
; ++index2;
;
	inc     _index2
;
; SPRITE_TABLE[index2] = 3;
;
	ldy     _index2
	lda     #$03
	sta     _SPRITE_TABLE,y
;
; ++index2;
;
	inc     _index2
;
; SPRITE_TABLE[index2] = xBall;
;
	ldy     _index2
	lda     _xBall
	sta     _SPRITE_TABLE,y
;
; ++index2;
;
	inc     _index2
;
; }
;
	rts

.endproc

; ---------------------------------------------------------------
; void __near__ turnScreenOff (void)
; ---------------------------------------------------------------

.segment	"CODE"

.proc	_turnScreenOff: near

.segment	"CODE"

;
; PPU_CTRL_REGISTER = 0;
;
	lda     #$00
	sta     $2000
;
; PPU_MASK_REGISTER = 0;
;
	sta     $2001
;
; }
;
	rts

.endproc

; ---------------------------------------------------------------
; void __near__ turnScreenOn (void)
; ---------------------------------------------------------------

.segment	"CODE"

.proc	_turnScreenOn: near

.segment	"CODE"

;
; PPU_CTRL_REGISTER = 0x90;
;
	lda     #$90
	sta     $2000
;
; PPU_MASK_REGISTER = 0x1e;
;
	lda     #$1E
	sta     $2001
;
; }
;
	rts

.endproc

; ---------------------------------------------------------------
; void __near__ loadPalette (void)
; ---------------------------------------------------------------

.segment	"CODE"

.proc	_loadPalette: near

.segment	"CODE"

;
; PPU_ADDRESS_REGISTER= 0x3f;
;
	lda     #$3F
	sta     $2006
;
; PPU_ADDRESS_REGISTER= 0x00;
;
	lda     #$00
	sta     $2006
;
; for(index = 0; index < sizeof(PALETTE); ++index)
;
	sta     _index
L02D9:	lda     _index
	cmp     #$10
	bcs     L02DA
;
; PPU_DATA_REGISTER = PALETTE[index];
;
	ldy     _index
	lda     _PALETTE,y
	sta     $2007
;
; for(index = 0; index < sizeof(PALETTE); ++index)
;
	inc     _index
	jmp     L02D9
;
; for(index = 0; index < sizeof(PALETTE); ++index)
;
L02DA:	lda     #$00
	sta     _index
L02DB:	lda     _index
	cmp     #$10
	bcs     L02DC
;
; PPU_DATA_REGISTER = PALETTE[index];
;
	ldy     _index
	lda     _PALETTE,y
	sta     $2007
;
; for(index = 0; index < sizeof(PALETTE); ++index)
;
	inc     _index
	jmp     L02DB
;
; PPU_ADDRESS_REGISTER = 0x23;
;
L02DC:	lda     #$23
	sta     $2006
;
; PPU_ADDRESS_REGISTER = 0xC0;
;
	lda     #$C0
	sta     $2006
;
; for( index = 0; index < sizeof(Attrib_Table); ++index )
;
	lda     #$00
	sta     _index
L02DD:	lda     _index
	cmp     #$40
	bcs     L026C
;
; PPU_DATA_REGISTER = Attrib_Table[index];
;
	ldy     _index
	lda     _Attrib_Table,y
	sta     $2007
;
; for( index = 0; index < sizeof(Attrib_Table); ++index )
;
	inc     _index
	jmp     L02DD
;
; }
;
L026C:	rts

.endproc

; ---------------------------------------------------------------
; void __near__ resetScrollRegister (void)
; ---------------------------------------------------------------

.segment	"CODE"

.proc	_resetScrollRegister: near

.segment	"CODE"

;
; PPU_ADDRESS_REGISTER = 0;
;
	lda     #$00
	sta     $2006
;
; PPU_ADDRESS_REGISTER = 0;
;
	sta     $2006
;
; SCROLL_REGISTER = 0;
;
	sta     $2005
;
; SCROLL_REGISTER = 0;
;
	sta     $2005
;
; }
;
	rts

.endproc

; ---------------------------------------------------------------
; void __near__ waitVBlank (void)
; ---------------------------------------------------------------

.segment	"CODE"

.proc	_waitVBlank: near

.segment	"CODE"

;
; while (NMIFlag == 0);
;
L02DE:	lda     _NMIFlag
	beq     L02DE
;
; NMIFlag = 0;
;
	lda     #$00
	sta     _NMIFlag
;
; }
;
	rts

.endproc

; ---------------------------------------------------------------
; void __near__ main (void)
; ---------------------------------------------------------------

.segment	"CODE"

.proc	_main: near

.segment	"CODE"

;
; turnScreenOff();
;
	jsr     _turnScreenOff
;
; loadPalette();
;
	jsr     _loadPalette
;
; resetScrollRegister();
;
	jsr     _resetScrollRegister
;
; turnScreenOn();
;
	jsr     _turnScreenOn
;
; waitVBlank();
;
	jsr     _waitVBlank
;
; writeBackgroundToPPU();
;
	jsr     _writeBackgroundToPPU
;
; inputListener();
;
L00D0:	jsr     _inputListener
;
; if (pauseTransition == TRUE && FrameCounter >= 30)
;
	lda     _pauseTransition
	bne     L02E1
	lda     _FrameCounter
	cmp     #$1E
	bcc     L02E1
;
; pauseTransition = FALSE;
;
	lda     #$01
	sta     _pauseTransition
;
; if (paused == FALSE)
;
L02E1:	lda     _paused
	cmp     #$01
	bne     L00DB
;
; updatePos();
;
	jsr     _updatePos
;
; spriteCollision();
;
	jsr     _spriteCollision
;
; writeSpritesToPPU();
;
	jsr     _writeSpritesToPPU
;
; frameRoutine();
;
L00DB:	jsr     _frameRoutine
;
; while (1)
;
	jmp     L00D0

.endproc

